target datalayout = "e-m:e-p270:32:32-p271:32:32-p272:64:64-i64:64-i128:128-f80:128-n8:16:32:64-S128"
target triple = "x86_64-pc-linux-gnu"

%struct.ident_t = type { i32, i32, i32, i32, ptr }
%"struct.faiss::BlockResultHandler" = type { ptr, i64, i64, i64 }
%"struct.faiss::ReservoirBlockResultHandler" = type { %"struct.faiss::BlockResultHandler", ptr, ptr, i64, i64, %"class.std::vector", %"class.std::vector.0", %"class.std::vector.5" }
%"class.std::vector" = type { %"struct.std::_Vector_base" }
%"struct.std::_Vector_base" = type { %"struct.std::_Vector_base<float, std::allocator<float>>::_Vector_impl" }
%"struct.std::_Vector_base<float, std::allocator<float>>::_Vector_impl" = type { %"struct.std::_Vector_base<float, std::allocator<float>>::_Vector_impl_data" }
%"struct.std::_Vector_base<float, std::allocator<float>>::_Vector_impl_data" = type { ptr, ptr, ptr }
%"class.std::vector.0" = type { %"struct.std::_Vector_base.1" }
%"struct.std::_Vector_base.1" = type { %"struct.std::_Vector_base<long, std::allocator<long>>::_Vector_impl" }
%"struct.std::_Vector_base<long, std::allocator<long>>::_Vector_impl" = type { %"struct.std::_Vector_base<long, std::allocator<long>>::_Vector_impl_data" }
%"struct.std::_Vector_base<long, std::allocator<long>>::_Vector_impl_data" = type { ptr, ptr, ptr }
%"class.std::vector.5" = type { %"struct.std::_Vector_base.6" }
%"struct.std::_Vector_base.6" = type { %"struct.std::_Vector_base<faiss::ReservoirTopN<faiss::CMin<float, long>>, std::allocator<faiss::ReservoirTopN<faiss::CMin<float, long>>>>::_Vector_impl" }
%"struct.std::_Vector_base<faiss::ReservoirTopN<faiss::CMin<float, long>>, std::allocator<faiss::ReservoirTopN<faiss::CMin<float, long>>>>::_Vector_impl" = type { %"struct.std::_Vector_base<faiss::ReservoirTopN<faiss::CMin<float, long>>, std::allocator<faiss::ReservoirTopN<faiss::CMin<float, long>>>>::_Vector_impl_data" }
%"struct.std::_Vector_base<faiss::ReservoirTopN<faiss::CMin<float, long>>, std::allocator<faiss::ReservoirTopN<faiss::CMin<float, long>>>>::_Vector_impl_data" = type { ptr, ptr, ptr }
%"struct.faiss::ResultHandler.base" = type <{ ptr, float }>
%"struct.faiss::ResultHandler" = type <{ ptr, float, [4 x i8] }>
%"struct.faiss::ReservoirTopN" = type { %"struct.faiss::ResultHandler.base", ptr, ptr, i64, i64, i64 }

@1 = private unnamed_addr constant %struct.ident_t { i32 0, i32 514, i32 0, i32 22, ptr @0 }, align 8

; Function Attrs: mustprogress uwtable
define linkonce_odr void @_ZN5faiss13ReservoirTopNINS_4CMinIflEEE12shrink_fuzzyEv(ptr noundef nonnull align 8 dereferenceable(56) %0) #6 comdat align 2 {
  %2 = alloca ptr, align 8
  store ptr %0, ptr %2, align 8
  %3 = load ptr, ptr %2, align 8
  %4 = getelementptr inbounds %"struct.faiss::ReservoirTopN", ptr %3, i32 0, i32 1
  %5 = load ptr, ptr %4, align 8
  %6 = getelementptr inbounds %"struct.faiss::ReservoirTopN", ptr %3, i32 0, i32 2
  %7 = load ptr, ptr %6, align 8
  %8 = getelementptr inbounds %"struct.faiss::ReservoirTopN", ptr %3, i32 0, i32 5
  %9 = load i64, ptr %8, align 8
  %10 = getelementptr inbounds %"struct.faiss::ReservoirTopN", ptr %3, i32 0, i32 4
  %11 = load i64, ptr %10, align 8
  %12 = getelementptr inbounds %"struct.faiss::ReservoirTopN", ptr %3, i32 0, i32 5
  %13 = load i64, ptr %12, align 8
  %14 = getelementptr inbounds %"struct.faiss::ReservoirTopN", ptr %3, i32 0, i32 4
  %15 = load i64, ptr %14, align 8
  %16 = add i64 %13, %15
  %17 = udiv i64 %16, 2
  %18 = getelementptr inbounds %"struct.faiss::ReservoirTopN", ptr %3, i32 0, i32 3
  %19 = call noundef float @_ZN5faiss15partition_fuzzyINS_4CMinIflEEEENT_1TEPS4_PNS3_2TIEmmmPm(ptr noundef %5, ptr noundef %7, i64 noundef %9, i64 noundef %11, i64 noundef %17, ptr noundef %18)
  %20 = getelementptr inbounds %"struct.faiss::ResultHandler", ptr %3, i32 0, i32 1
  store float %19, ptr %20, align 8
  ret void
}

; Function Attrs: mustprogress nounwind uwtable
define linkonce_odr noundef zeroext i1 @_ZN5faiss4CMinIflE3cmpEff(float noundef %0, float noundef %1) #0 comdat align 2 {
  %3 = alloca float, align 4
  %4 = alloca float, align 4
  store float %0, ptr %3, align 4
  store float %1, ptr %4, align 4
  %5 = load float, ptr %3, align 4
  %6 = load float, ptr %4, align 4
  %7 = fcmp olt float %5, %6
  ret i1 %7
}

; Function Attrs: mustprogress uwtable
define linkonce_odr noundef zeroext i1 @_ZN5faiss13ReservoirTopNINS_4CMinIflEEE10add_resultEfl(ptr noundef nonnull align 8 dereferenceable(56) %0, float noundef %1, i64 noundef %2) unnamed_addr #6 comdat align 2 {
  %4 = alloca ptr, align 8
  %5 = alloca float, align 4
  %6 = alloca i64, align 8
  %7 = alloca i8, align 1
  store ptr %0, ptr %4, align 8
  store float %1, ptr %5, align 4
  store i64 %2, ptr %6, align 8
  %8 = load ptr, ptr %4, align 8
  store i8 0, ptr %7, align 1
  %9 = getelementptr inbounds %"struct.faiss::ResultHandler", ptr %8, i32 0, i32 1
  %10 = load float, ptr %9, align 8
  %11 = load float, ptr %5, align 4
  %12 = call noundef zeroext i1 @_ZN5faiss4CMinIflE3cmpEff(float noundef %10, float noundef %11)
  br i1 %12, label %13, label %36

13:                                               ; preds = %3
  %14 = getelementptr inbounds %"struct.faiss::ReservoirTopN", ptr %8, i32 0, i32 3
  %15 = load i64, ptr %14, align 8
  %16 = getelementptr inbounds %"struct.faiss::ReservoirTopN", ptr %8, i32 0, i32 5
  %17 = load i64, ptr %16, align 8
  %18 = icmp eq i64 %15, %17
  br i1 %18, label %19, label %20

19:                                               ; preds = %13
  call void @_ZN5faiss13ReservoirTopNINS_4CMinIflEEE12shrink_fuzzyEv(ptr noundef nonnull align 8 dereferenceable(56) %8)
  store i8 1, ptr %7, align 1
  br label %20

20:                                               ; preds = %19, %13
  %21 = load float, ptr %5, align 4
  %22 = getelementptr inbounds %"struct.faiss::ReservoirTopN", ptr %8, i32 0, i32 1
  %23 = load ptr, ptr %22, align 8
  %24 = getelementptr inbounds %"struct.faiss::ReservoirTopN", ptr %8, i32 0, i32 3
  %25 = load i64, ptr %24, align 8
  %26 = getelementptr inbounds float, ptr %23, i64 %25
  store float %21, ptr %26, align 4
  %27 = load i64, ptr %6, align 8
  %28 = getelementptr inbounds %"struct.faiss::ReservoirTopN", ptr %8, i32 0, i32 2
  %29 = load ptr, ptr %28, align 8
  %30 = getelementptr inbounds %"struct.faiss::ReservoirTopN", ptr %8, i32 0, i32 3
  %31 = load i64, ptr %30, align 8
  %32 = getelementptr inbounds i64, ptr %29, i64 %31
  store i64 %27, ptr %32, align 8
  %33 = getelementptr inbounds %"struct.faiss::ReservoirTopN", ptr %8, i32 0, i32 3
  %34 = load i64, ptr %33, align 8
  %35 = add i64 %34, 1
  store i64 %35, ptr %33, align 8
  br label %36

36:                                               ; preds = %20, %3
  %37 = load i8, ptr %7, align 1
  %38 = trunc i8 %37 to i1
  ret i1 %38
}

; Function Attrs: mustprogress nounwind uwtable
define linkonce_odr noundef nonnull align 8 dereferenceable(56) ptr @_ZNSt6vectorIN5faiss13ReservoirTopNINS0_4CMinIflEEEESaIS4_EEixEm(ptr noundef nonnull align 8 dereferenceable(24) %0, i64 noundef %1) #0 comdat align 2 {
  %3 = alloca ptr, align 8
  %4 = alloca i64, align 8
  store ptr %0, ptr %3, align 8
  store i64 %1, ptr %4, align 8
  %5 = load ptr, ptr %3, align 8
  %6 = getelementptr inbounds %"struct.std::_Vector_base.6", ptr %5, i32 0, i32 0
  %7 = getelementptr inbounds %"struct.std::_Vector_base<faiss::ReservoirTopN<faiss::CMin<float, long>>, std::allocator<faiss::ReservoirTopN<faiss::CMin<float, long>>>>::_Vector_impl_data", ptr %6, i32 0, i32 0
  %8 = load ptr, ptr %7, align 8
  %9 = load i64, ptr %4, align 8
  %10 = getelementptr inbounds %"struct.faiss::ReservoirTopN", ptr %8, i64 %9
  ret ptr %10
}

; Function Attrs: norecurse nounwind uwtable
define internal void @_ZN5faiss27ReservoirBlockResultHandlerINS_4CMinIflEEE11add_resultsEmmPKf.omp_outlined(ptr noalias noundef %0, ptr noalias noundef %1, ptr noundef %2, ptr noundef nonnull align 8 dereferenceable(8) %3, ptr noundef nonnull align 8 dereferenceable(8) %4, ptr noundef nonnull align 8 dereferenceable(8) %5) #1 personality ptr @__gxx_personality_v0 {
  %7 = alloca ptr, align 8
  %8 = alloca ptr, align 8
  %9 = alloca ptr, align 8
  %10 = alloca ptr, align 8
  %11 = alloca ptr, align 8
  %12 = alloca ptr, align 8
  %13 = alloca i64, align 8
  %14 = alloca i64, align 8
  %15 = alloca i64, align 8
  %16 = alloca i64, align 8
  %17 = alloca i64, align 8
  %18 = alloca i64, align 8
  %19 = alloca i64, align 8
  %20 = alloca i64, align 8
  %21 = alloca i32, align 4
  %22 = alloca i64, align 8
  %23 = alloca ptr, align 8
  %24 = alloca ptr, align 8
  %25 = alloca i64, align 8
  %26 = alloca float, align 4
  store ptr %0, ptr %7, align 8
  store ptr %1, ptr %8, align 8
  store ptr %2, ptr %9, align 8
  store ptr %3, ptr %10, align 8
  store ptr %4, ptr %11, align 8
  store ptr %5, ptr %12, align 8
  %27 = load ptr, ptr %9, align 8
  %28 = load ptr, ptr %10, align 8
  %29 = load ptr, ptr %11, align 8
  %30 = load ptr, ptr %12, align 8
  %31 = getelementptr inbounds %"struct.faiss::BlockResultHandler", ptr %27, i32 0, i32 2
  %32 = load i64, ptr %31, align 8
  store i64 %32, ptr %14, align 8
  %33 = getelementptr inbounds %"struct.faiss::BlockResultHandler", ptr %27, i32 0, i32 3
  %34 = load i64, ptr %33, align 8
  store i64 %34, ptr %15, align 8
  %35 = load i64, ptr %15, align 8
  %36 = load i64, ptr %14, align 8
  %37 = sub i64 %35, %36
  %38 = sub i64 %37, 1
  %39 = add i64 %38, 1
  %40 = udiv i64 %39, 1
  %41 = sub i64 %40, 1
  store i64 %41, ptr %16, align 8
  %42 = load i64, ptr %14, align 8
  store i64 %42, ptr %17, align 8
  %43 = load i64, ptr %14, align 8
  %44 = load i64, ptr %15, align 8
  %45 = icmp ult i64 %43, %44
  br i1 %45, label %46, label %116

46:                                               ; preds = %6
  store i64 0, ptr %18, align 8
  %47 = load i64, ptr %16, align 8
  store i64 %47, ptr %19, align 8
  store i64 1, ptr %20, align 8
  store i32 0, ptr %21, align 4
  %48 = load ptr, ptr %7, align 8
  %49 = load i32, ptr %48, align 4
  call void @__kmpc_for_static_init_8u(ptr @1, i32 %49, i32 34, ptr %21, ptr %18, ptr %19, ptr %20, i64 1, i64 1)
  %50 = load i64, ptr %19, align 8
  %51 = load i64, ptr %16, align 8
  %52 = icmp ugt i64 %50, %51
  br i1 %52, label %53, label %55

53:                                               ; preds = %46
  %54 = load i64, ptr %16, align 8
  br label %57

55:                                               ; preds = %46
  %56 = load i64, ptr %19, align 8
  br label %57

57:                                               ; preds = %55, %53
  %58 = phi i64 [ %54, %53 ], [ %56, %55 ]
  store i64 %58, ptr %19, align 8
  %59 = load i64, ptr %18, align 8
  store i64 %59, ptr %13, align 8
  br label %60

60:                                               ; preds = %109, %57
  %61 = load i64, ptr %13, align 8
  %62 = load i64, ptr %19, align 8
  %63 = add i64 %62, 1
  %64 = icmp ult i64 %61, %63
  br i1 %64, label %65, label %112

65:                                               ; preds = %60
  %66 = load i64, ptr %14, align 8
  %67 = load i64, ptr %13, align 8
  %68 = mul i64 %67, 1
  %69 = add i64 %66, %68
  store i64 %69, ptr %22, align 8
  %70 = getelementptr inbounds %"struct.faiss::ReservoirBlockResultHandler", ptr %27, i32 0, i32 7
  %71 = load i64, ptr %22, align 8
  %72 = getelementptr inbounds %"struct.faiss::BlockResultHandler", ptr %27, i32 0, i32 2
  %73 = load i64, ptr %72, align 8
  %74 = sub i64 %71, %73
  %75 = call noundef nonnull align 8 dereferenceable(56) ptr @_ZNSt6vectorIN5faiss13ReservoirTopNINS0_4CMinIflEEEESaIS4_EEixEm(ptr noundef nonnull align 8 dereferenceable(24) %70, i64 noundef %74) #2
  store ptr %75, ptr %23, align 8
  %76 = load ptr, ptr %28, align 8
  %77 = load i64, ptr %29, align 8
  %78 = load i64, ptr %30, align 8
  %79 = sub i64 %77, %78
  %80 = load i64, ptr %22, align 8
  %81 = getelementptr inbounds %"struct.faiss::BlockResultHandler", ptr %27, i32 0, i32 2
  %82 = load i64, ptr %81, align 8
  %83 = sub i64 %80, %82
  %84 = mul i64 %79, %83
  %85 = getelementptr inbounds float, ptr %76, i64 %84
  %86 = load i64, ptr %30, align 8
  %87 = sub i64 0, %86
  %88 = getelementptr inbounds float, ptr %85, i64 %87
  store ptr %88, ptr %24, align 8
  %89 = load i64, ptr %30, align 8
  store i64 %89, ptr %25, align 8
  br label %90

90:                                               ; preds = %104, %65
  %91 = load i64, ptr %25, align 8
  %92 = load i64, ptr %29, align 8
  %93 = icmp ult i64 %91, %92
  br i1 %93, label %94, label %107

94:                                               ; preds = %90
  %95 = load ptr, ptr %24, align 8
  %96 = load i64, ptr %25, align 8
  %97 = getelementptr inbounds float, ptr %95, i64 %96
  %98 = load float, ptr %97, align 4
  store float %98, ptr %26, align 4
  %99 = load ptr, ptr %23, align 8
  %100 = load float, ptr %26, align 4
  %101 = load i64, ptr %25, align 8
  %102 = invoke noundef zeroext i1 @_ZN5faiss13ReservoirTopNINS_4CMinIflEEE10add_resultEfl(ptr noundef nonnull align 8 dereferenceable(56) %99, float noundef %100, i64 noundef %101)
          to label %103 unwind label %117

103:                                              ; preds = %94
  br label %104

104:                                              ; preds = %103
  %105 = load i64, ptr %25, align 8
  %106 = add i64 %105, 1
  store i64 %106, ptr %25, align 8
  br label %90, !llvm.loop !40

107:                                              ; preds = %90
  br label %108

108:                                              ; preds = %107
  br label %109

109:                                              ; preds = %108
  %110 = load i64, ptr %13, align 8
  %111 = add i64 %110, 1
  store i64 %111, ptr %13, align 8
  br label %60

112:                                              ; preds = %60
  br label %113

113:                                              ; preds = %112
  %114 = load ptr, ptr %7, align 8
  %115 = load i32, ptr %114, align 4
  call void @__kmpc_for_static_fini(ptr @1, i32 %115)
  br label %116

116:                                              ; preds = %113, %6
  ret void

117:                                              ; preds = %94
  %118 = landingpad { ptr, i32 }
          catch ptr null
  %119 = extractvalue { ptr, i32 } %118, 0
  call void @__clang_call_terminate(ptr %119) #17
  unreachable
}